; Function Attrs: mustprogress uwtable
define noundef i32 @udat_formatCalendarForFields_75(ptr noundef %format, ptr noundef %calendar, ptr noundef %result, i32 noundef %resultLength, ptr noundef %fpositer, ptr noundef %status) local_unnamed_addr #1 personality ptr @__gxx_personality_v0 {
entry:
  %res = alloca %"class.icu_75::UnicodeString", align 8
  %agg.tmp = alloca %"class.icu_75::Char16Ptr", align 8
  %0 = load i32, ptr %status, align 4
  %cmp.i = icmp slt i32 %0, 1
  br i1 %cmp.i, label %if.end, label %return

if.end:                                           ; preds = %entry
  %cmp = icmp eq ptr %result, null
  br i1 %cmp, label %cond.true, label %cond.false

cond.true:                                        ; preds = %if.end
  %cmp1.not = icmp eq i32 %resultLength, 0
  br i1 %cmp1.not, label %if.end4.thread, label %if.then3

if.end4.thread:                                   ; preds = %cond.true
  store ptr getelementptr inbounds ({ [13 x ptr] }, ptr @_ZTVN6icu_7513UnicodeStringE, i64 0, i32 0, i64 2), ptr %res, align 8
  %fUnion2.i11 = getelementptr inbounds i8, ptr %res, i64 8
  store i16 2, ptr %fUnion2.i11, align 8
  br label %if.end8

cond.false:                                       ; preds = %if.end
  %cmp2 = icmp slt i32 %resultLength, 0
  br i1 %cmp2, label %if.then3, label %if.then6

if.then3:                                         ; preds = %cond.false, %cond.true
  store i32 1, ptr %status, align 4
  br label %return

if.then6:                                         ; preds = %cond.false
  store ptr getelementptr inbounds ({ [13 x ptr] }, ptr @_ZTVN6icu_7513UnicodeStringE, i64 0, i32 0, i64 2), ptr %res, align 8
  %fUnion2.i = getelementptr inbounds i8, ptr %res, i64 8
  store i16 2, ptr %fUnion2.i, align 8
  %call7 = invoke noundef nonnull align 8 dereferenceable(64) ptr @_ZN6icu_7513UnicodeString5setToEPDsii(ptr noundef nonnull align 8 dereferenceable(64) %res, ptr noundef nonnull %result, i32 noundef 0, i32 noundef %resultLength)
          to label %if.end8 unwind label %lpad

lpad:                                             ; preds = %if.end8, %if.then6
  %1 = landingpad { ptr, i32 }
          cleanup
  br label %ehcleanup

if.end8:                                          ; preds = %if.end4.thread, %if.then6
  %vtable = load ptr, ptr %format, align 8
  %vfn = getelementptr inbounds i8, ptr %vtable, i64 72
  %2 = load ptr, ptr %vfn, align 8
  %call10 = invoke noundef nonnull align 8 dereferenceable(64) ptr %2(ptr noundef nonnull align 8 dereferenceable(352) %format, ptr noundef nonnull align 8 dereferenceable(618) %calendar, ptr noundef nonnull align 8 dereferenceable(64) %res, ptr noundef %fpositer, ptr noundef nonnull align 4 dereferenceable(4) %status)
          to label %invoke.cont9 unwind label %lpad

invoke.cont9:                                     ; preds = %if.end8
  store ptr %result, ptr %agg.tmp, align 8
  %call14 = invoke noundef i32 @_ZNK6icu_7513UnicodeString7extractENS_9Char16PtrEiR10UErrorCode(ptr noundef nonnull align 8 dereferenceable(64) %res, ptr noundef nonnull %agg.tmp, i32 noundef %resultLength, ptr noundef nonnull align 4 dereferenceable(4) %status)
          to label %invoke.cont13 unwind label %lpad12

invoke.cont13:                                    ; preds = %invoke.cont9
  %3 = load ptr, ptr %agg.tmp, align 8
  call void asm sideeffect "", "rm,~{memory},~{dirflag},~{fpsr},~{flags}"(ptr %3) #7, !srcloc !5
  call void @_ZN6icu_7513UnicodeStringD1Ev(ptr noundef nonnull align 8 dereferenceable(64) %res) #7
  br label %return

lpad12:                                           ; preds = %invoke.cont9
  %4 = landingpad { ptr, i32 }
          cleanup
  %5 = load ptr, ptr %agg.tmp, align 8
  call void asm sideeffect "", "rm,~{memory},~{dirflag},~{fpsr},~{flags}"(ptr %5) #7, !srcloc !5
  br label %ehcleanup

ehcleanup:                                        ; preds = %lpad12, %lpad
  %.pn = phi { ptr, i32 } [ %4, %lpad12 ], [ %1, %lpad ]
  call void @_ZN6icu_7513UnicodeStringD1Ev(ptr noundef nonnull align 8 dereferenceable(64) %res) #7
  resume { ptr, i32 } %.pn

return:                                           ; preds = %entry, %invoke.cont13, %if.then3
  %retval.0 = phi i32 [ -1, %if.then3 ], [ %call14, %invoke.cont13 ], [ -1, %entry ]
  ret i32 %retval.0
}